target datalayout = "e-m:e-p270:32:32-p271:32:32-p272:64:64-i64:64-i128:128-f80:128-n8:16:32:64-S128"
target triple = "x86_64-pc-linux-gnu"

%struct.AVRational = type { i32, i32 }
%struct.AVStream = type { ptr, i32, i32, ptr, ptr, %struct.AVRational, i64, i64, i64, i32, i32, %struct.AVRational, ptr, %struct.AVRational, %struct.AVPacket, i32, %struct.AVRational, i32 }
%struct.AVPacket = type { ptr, i64, i64, ptr, i32, i32, i32, ptr, i32, i64, i64, ptr, ptr, %struct.AVRational }
%struct.AVStreamGroup = type { ptr, ptr, i32, i64, i32, %union.anon, ptr, i32, ptr, i32 }
%union.anon = type { ptr }
%struct.AVFormatContext = type { ptr, ptr, ptr, ptr, ptr, i32, i32, ptr, i32, ptr, i32, ptr, ptr, i64, i64, i64, i32, i32, i32, i64, i64, ptr, i32, i32, ptr, i32, i32, i32, i32, ptr, i64, i32, i32, %struct.AVIOInterruptCB, i32, i32, i32, i32, i64, i32, i32, i32, i32, i32, i32, i32, i32, i32, i32, i32, i32, i64, i32, i32, i32, i32, i32, ptr, ptr, ptr, ptr, i32, ptr, ptr, ptr, ptr, i32, ptr, ptr, i64, ptr, ptr, ptr, i64 }
%struct.AVIOInterruptCB = type { ptr, ptr }
%struct.AVProgram = type { i32, i32, i32, ptr, i32, ptr, i32, i32, i32, i32, i64, i64, i64, i32 }

@.str.12 = private unnamed_addr constant [31 x i8] c"Invalid stream specifier: %s.\0A\00", align 1

; Function Attrs: nounwind uwtable
define i32 @avformat_match_stream_specifier(ptr noundef %0, ptr noundef %1, ptr noundef %2) #0 {
  %4 = alloca i32, align 4
  %5 = alloca ptr, align 8
  %6 = alloca ptr, align 8
  %7 = alloca ptr, align 8
  %8 = alloca i32, align 4
  %9 = alloca i32, align 4
  %10 = alloca ptr, align 8
  %11 = alloca ptr, align 8
  %12 = alloca ptr, align 8
  %13 = alloca ptr, align 8
  %14 = alloca i32, align 4
  %15 = alloca i32, align 4
  %16 = alloca i32, align 4
  %17 = alloca i32, align 4
  %18 = alloca ptr, align 8
  store ptr %0, ptr %5, align 8, !tbaa !47
  store ptr %1, ptr %6, align 8, !tbaa !10
  store ptr %2, ptr %7, align 8, !tbaa !138
  call void @llvm.lifetime.start.p0(i64 4, ptr %8) #11
  call void @llvm.lifetime.start.p0(i64 4, ptr %9) #11
  call void @llvm.lifetime.start.p0(i64 8, ptr %10) #11
  call void @llvm.lifetime.start.p0(i64 8, ptr %11) #11
  store ptr null, ptr %11, align 8, !tbaa !138
  call void @llvm.lifetime.start.p0(i64 8, ptr %12) #11
  store ptr null, ptr %12, align 8, !tbaa !42
  call void @llvm.lifetime.start.p0(i64 8, ptr %13) #11
  store ptr null, ptr %13, align 8, !tbaa !80
  call void @llvm.lifetime.start.p0(i64 4, ptr %14) #11
  %19 = load ptr, ptr %5, align 8, !tbaa !47
  %20 = load ptr, ptr %6, align 8, !tbaa !10
  %21 = load ptr, ptr %7, align 8, !tbaa !138
  %22 = call i32 @match_stream_specifier(ptr noundef %19, ptr noundef %20, ptr noundef %21, ptr noundef %11, ptr noundef %12, ptr noundef %13)
  store i32 %22, ptr %8, align 4, !tbaa !74
  %23 = load i32, ptr %8, align 4, !tbaa !74
  %24 = icmp slt i32 %23, 0
  br i1 %24, label %25, label %26

25:                                               ; preds = %3
  br label %148

26:                                               ; preds = %3
  %27 = load ptr, ptr %11, align 8, !tbaa !138
  %28 = icmp ne ptr %27, null
  br i1 %28, label %31, label %29

29:                                               ; preds = %26
  %30 = load i32, ptr %8, align 4, !tbaa !74
  store i32 %30, ptr %4, align 4
  store i32 1, ptr %15, align 4
  br label %156

31:                                               ; preds = %26
  %32 = load ptr, ptr %11, align 8, !tbaa !138
  %33 = call i64 @strtol(ptr noundef %32, ptr noundef %10, i32 noundef 0) #11
  %34 = trunc i64 %33 to i32
  store i32 %34, ptr %9, align 4, !tbaa !74
  %35 = load ptr, ptr %10, align 8, !tbaa !138
  %36 = load i8, ptr %35, align 1, !tbaa !46
  %37 = icmp ne i8 %36, 0
  br i1 %37, label %38, label %39

38:                                               ; preds = %31
  store i32 -22, ptr %8, align 4, !tbaa !74
  br label %148

39:                                               ; preds = %31
  %40 = load ptr, ptr %7, align 8, !tbaa !138
  %41 = load ptr, ptr %11, align 8, !tbaa !138
  %42 = icmp eq ptr %40, %41
  br i1 %42, label %43, label %50

43:                                               ; preds = %39
  %44 = load i32, ptr %9, align 4, !tbaa !74
  %45 = load ptr, ptr %6, align 8, !tbaa !10
  %46 = getelementptr inbounds nuw %struct.AVStream, ptr %45, i32 0, i32 1
  %47 = load i32, ptr %46, align 8, !tbaa !139
  %48 = icmp eq i32 %44, %47
  %49 = zext i1 %48 to i32
  store i32 %49, ptr %4, align 4
  store i32 1, ptr %15, align 4
  br label %156

50:                                               ; preds = %39
  %51 = load ptr, ptr %12, align 8, !tbaa !42
  %52 = icmp ne ptr %51, null
  br i1 %52, label %53, label %57

53:                                               ; preds = %50
  %54 = load ptr, ptr %12, align 8, !tbaa !42
  %55 = getelementptr inbounds nuw %struct.AVStreamGroup, ptr %54, i32 0, i32 7
  %56 = load i32, ptr %55, align 8, !tbaa !140
  br label %70

57:                                               ; preds = %50
  %58 = load ptr, ptr %13, align 8, !tbaa !80
  %59 = icmp ne ptr %58, null
  br i1 %59, label %60, label %64

60:                                               ; preds = %57
  %61 = load ptr, ptr %13, align 8, !tbaa !80
  %62 = getelementptr inbounds nuw %struct.AVProgram, ptr %61, i32 0, i32 4
  %63 = load i32, ptr %62, align 8, !tbaa !110
  br label %68

64:                                               ; preds = %57
  %65 = load ptr, ptr %5, align 8, !tbaa !47
  %66 = getelementptr inbounds nuw %struct.AVFormatContext, ptr %65, i32 0, i32 6
  %67 = load i32, ptr %66, align 4, !tbaa !48
  br label %68

68:                                               ; preds = %64, %60
  %69 = phi i32 [ %63, %60 ], [ %67, %64 ]
  br label %70

70:                                               ; preds = %68, %53
  %71 = phi i32 [ %56, %53 ], [ %69, %68 ]
  store i32 %71, ptr %14, align 4, !tbaa !74
  call void @llvm.lifetime.start.p0(i64 4, ptr %16) #11
  store i32 0, ptr %16, align 4, !tbaa !74
  br label %72

72:                                               ; preds = %142, %70
  %73 = load i32, ptr %16, align 4, !tbaa !74
  %74 = load i32, ptr %14, align 4, !tbaa !74
  %75 = icmp slt i32 %73, %74
  br i1 %75, label %76, label %79

76:                                               ; preds = %72
  %77 = load i32, ptr %9, align 4, !tbaa !74
  %78 = icmp sge i32 %77, 0
  br label %79

79:                                               ; preds = %76, %72
  %80 = phi i1 [ false, %72 ], [ %78, %76 ]
  br i1 %80, label %82, label %81

81:                                               ; preds = %79
  store i32 3, ptr %15, align 4
  br label %145

82:                                               ; preds = %79
  call void @llvm.lifetime.start.p0(i64 4, ptr %17) #11
  %83 = load ptr, ptr %12, align 8, !tbaa !42
  %84 = icmp ne ptr %83, null
  br i1 %84, label %85, label %95

85:                                               ; preds = %82
  %86 = load ptr, ptr %12, align 8, !tbaa !42
  %87 = getelementptr inbounds nuw %struct.AVStreamGroup, ptr %86, i32 0, i32 8
  %88 = load ptr, ptr %87, align 8, !tbaa !141
  %89 = load i32, ptr %16, align 4, !tbaa !74
  %90 = sext i32 %89 to i64
  %91 = getelementptr inbounds ptr, ptr %88, i64 %90
  %92 = load ptr, ptr %91, align 8, !tbaa !10
  %93 = getelementptr inbounds nuw %struct.AVStream, ptr %92, i32 0, i32 1
  %94 = load i32, ptr %93, align 8, !tbaa !139
  br label %110

95:                                               ; preds = %82
  %96 = load ptr, ptr %13, align 8, !tbaa !80
  %97 = icmp ne ptr %96, null
  br i1 %97, label %98, label %106

98:                                               ; preds = %95
  %99 = load ptr, ptr %13, align 8, !tbaa !80
  %100 = getelementptr inbounds nuw %struct.AVProgram, ptr %99, i32 0, i32 3
  %101 = load ptr, ptr %100, align 8, !tbaa !111
  %102 = load i32, ptr %16, align 4, !tbaa !74
  %103 = sext i32 %102 to i64
  %104 = getelementptr inbounds i32, ptr %101, i64 %103
  %105 = load i32, ptr %104, align 4, !tbaa !74
  br label %108

106:                                              ; preds = %95
  %107 = load i32, ptr %16, align 4, !tbaa !74
  br label %108

108:                                              ; preds = %106, %98
  %109 = phi i32 [ %105, %98 ], [ %107, %106 ]
  br label %110

110:                                              ; preds = %108, %85
  %111 = phi i32 [ %94, %85 ], [ %109, %108 ]
  store i32 %111, ptr %17, align 4, !tbaa !74
  call void @llvm.lifetime.start.p0(i64 8, ptr %18) #11
  %112 = load ptr, ptr %5, align 8, !tbaa !47
  %113 = getelementptr inbounds nuw %struct.AVFormatContext, ptr %112, i32 0, i32 7
  %114 = load ptr, ptr %113, align 8, !tbaa !57
  %115 = load i32, ptr %17, align 4, !tbaa !74
  %116 = zext i32 %115 to i64
  %117 = getelementptr inbounds nuw ptr, ptr %114, i64 %116
  %118 = load ptr, ptr %117, align 8, !tbaa !10
  store ptr %118, ptr %18, align 8, !tbaa !10
  %119 = load ptr, ptr %5, align 8, !tbaa !47
  %120 = load ptr, ptr %18, align 8, !tbaa !10
  %121 = load ptr, ptr %7, align 8, !tbaa !138
  %122 = call i32 @match_stream_specifier(ptr noundef %119, ptr noundef %120, ptr noundef %121, ptr noundef null, ptr noundef null, ptr noundef null)
  store i32 %122, ptr %8, align 4, !tbaa !74
  %123 = load i32, ptr %8, align 4, !tbaa !74
  %124 = icmp slt i32 %123, 0
  br i1 %124, label %125, label %126

125:                                              ; preds = %110
  store i32 2, ptr %15, align 4
  br label %139

126:                                              ; preds = %110
  %127 = load i32, ptr %8, align 4, !tbaa !74
  %128 = icmp sgt i32 %127, 0
  br i1 %128, label %129, label %138

129:                                              ; preds = %126
  %130 = load i32, ptr %9, align 4, !tbaa !74
  %131 = add nsw i32 %130, -1
  store i32 %131, ptr %9, align 4, !tbaa !74
  %132 = icmp eq i32 %130, 0
  br i1 %132, label %133, label %138

133:                                              ; preds = %129
  %134 = load ptr, ptr %6, align 8, !tbaa !10
  %135 = load ptr, ptr %18, align 8, !tbaa !10
  %136 = icmp eq ptr %134, %135
  br i1 %136, label %137, label %138

137:                                              ; preds = %133
  store i32 1, ptr %4, align 4
  store i32 1, ptr %15, align 4
  br label %139

138:                                              ; preds = %133, %129, %126
  store i32 0, ptr %15, align 4
  br label %139

139:                                              ; preds = %125, %138, %137
  call void @llvm.lifetime.end.p0(i64 8, ptr %18) #11
  call void @llvm.lifetime.end.p0(i64 4, ptr %17) #11
  %140 = load i32, ptr %15, align 4
  switch i32 %140, label %145 [
    i32 0, label %141
  ]

141:                                              ; preds = %139
  br label %142

142:                                              ; preds = %141
  %143 = load i32, ptr %16, align 4, !tbaa !74
  %144 = add nsw i32 %143, 1
  store i32 %144, ptr %16, align 4, !tbaa !74
  br label %72, !llvm.loop !142

145:                                              ; preds = %139, %81
  call void @llvm.lifetime.end.p0(i64 4, ptr %16) #11
  %146 = load i32, ptr %15, align 4
  switch i32 %146, label %156 [
    i32 3, label %147
    i32 2, label %148
  ]

147:                                              ; preds = %145
  store i32 0, ptr %4, align 4
  store i32 1, ptr %15, align 4
  br label %156

148:                                              ; preds = %145, %38, %25
  %149 = load i32, ptr %8, align 4, !tbaa !74
  %150 = icmp eq i32 %149, -22
  br i1 %150, label %151, label %154

151:                                              ; preds = %148
  %152 = load ptr, ptr %5, align 8, !tbaa !47
  %153 = load ptr, ptr %7, align 8, !tbaa !138
  call void (ptr, i32, ptr, ...) @av_log(ptr noundef %152, i32 noundef 16, ptr noundef @.str.12, ptr noundef %153)
  br label %154

154:                                              ; preds = %151, %148
  %155 = load i32, ptr %8, align 4, !tbaa !74
  store i32 %155, ptr %4, align 4
  store i32 1, ptr %15, align 4
  br label %156

156:                                              ; preds = %154, %147, %145, %43, %29
  call void @llvm.lifetime.end.p0(i64 4, ptr %14) #11
  call void @llvm.lifetime.end.p0(i64 8, ptr %13) #11
  call void @llvm.lifetime.end.p0(i64 8, ptr %12) #11
  call void @llvm.lifetime.end.p0(i64 8, ptr %11) #11
  call void @llvm.lifetime.end.p0(i64 8, ptr %10) #11
  call void @llvm.lifetime.end.p0(i64 4, ptr %9) #11
  call void @llvm.lifetime.end.p0(i64 4, ptr %8) #11
  %157 = load i32, ptr %4, align 4
  ret i32 %157
}