; Function Attrs: nounwind uwtable
define range(i32 -22, 2) i32 @avformat_match_stream_specifier(ptr noundef %0, ptr noundef readonly captures(address) %1, ptr noundef %2) local_unnamed_addr #0 {
  %4 = alloca ptr, align 8
  %5 = alloca ptr, align 8
  %6 = alloca ptr, align 8
  %7 = alloca ptr, align 8
  call void @llvm.lifetime.start.p0(i64 8, ptr nonnull %4) #13
  call void @llvm.lifetime.start.p0(i64 8, ptr nonnull %5) #13
  store ptr null, ptr %5, align 8, !tbaa !121
  call void @llvm.lifetime.start.p0(i64 8, ptr nonnull %6) #13
  store ptr null, ptr %6, align 8, !tbaa !35
  call void @llvm.lifetime.start.p0(i64 8, ptr nonnull %7) #13
  store ptr null, ptr %7, align 8, !tbaa !71
  %8 = call fastcc i32 @match_stream_specifier(ptr noundef %0, ptr noundef %1, ptr noundef %2, ptr noundef nonnull %5, ptr noundef nonnull %6, ptr noundef nonnull %7)
  %9 = icmp slt i32 %8, 0
  br i1 %9, label %.thread68, label %10

10:                                               ; preds = %3
  %11 = load ptr, ptr %5, align 8, !tbaa !121
  %.not = icmp eq ptr %11, null
  br i1 %.not, label %.thread65, label %12

12:                                               ; preds = %10
  %13 = call i64 @strtol(ptr noundef nonnull %11, ptr noundef nonnull %4, i32 noundef 0) #13
  %14 = trunc i64 %13 to i32
  %15 = load ptr, ptr %4, align 8, !tbaa !121
  %16 = load i8, ptr %15, align 1, !tbaa !41
  %.not50 = icmp eq i8 %16, 0
  br i1 %.not50, label %17, label %.thread71

17:                                               ; preds = %12
  %18 = icmp eq ptr %2, %11
  br i1 %18, label %19, label %24

19:                                               ; preds = %17
  %20 = getelementptr inbounds nuw i8, ptr %1, i64 8
  %21 = load i32, ptr %20, align 8, !tbaa !122
  %22 = icmp eq i32 %21, %14
  %23 = zext i1 %22 to i32
  br label %.thread65

24:                                               ; preds = %17
  %25 = load ptr, ptr %6, align 8, !tbaa !35
  %.not51 = icmp eq ptr %25, null
  br i1 %.not51, label %26, label %.thread105

26:                                               ; preds = %24
  %27 = load ptr, ptr %7, align 8, !tbaa !71
  %.not52 = icmp eq ptr %27, null
  %28 = getelementptr inbounds nuw i8, ptr %27, i64 24
  %29 = getelementptr inbounds nuw i8, ptr %0, i64 44
  %.in = select i1 %.not52, ptr %29, ptr %28
  %30 = load i32, ptr %.in, align 4, !tbaa !102
  %31 = icmp sgt i32 %30, 0
  %32 = icmp sgt i32 %14, -1
  %33 = select i1 %31, i1 %32, i1 false
  br i1 %33, label %.lr.ph, label %.thread65

.thread105:                                       ; preds = %24
  %34 = getelementptr inbounds nuw i8, ptr %25, i64 56
  %35 = load i32, ptr %34, align 4, !tbaa !102
  %36 = icmp sgt i32 %35, 0
  %37 = icmp sgt i32 %14, -1
  %38 = select i1 %36, i1 %37, i1 false
  br i1 %38, label %.lr.ph.thread, label %.thread65

.lr.ph.thread:                                    ; preds = %.thread105
  %39 = getelementptr inbounds nuw i8, ptr %25, i64 64
  %40 = getelementptr inbounds nuw i8, ptr %0, i64 48
  %41 = zext nneg i32 %35 to i64
  br label %.lr.ph.split

.lr.ph:                                           ; preds = %26
  %42 = load ptr, ptr %7, align 8
  %43 = getelementptr inbounds nuw i8, ptr %42, i64 16
  %44 = getelementptr inbounds nuw i8, ptr %0, i64 48
  %.not54 = icmp eq ptr %42, null
  %45 = zext nneg i32 %30 to i64
  br i1 %.not54, label %.lr.ph.split.us.split.us, label %.lr.ph.split.us.split

.lr.ph.split.us.split.us:                         ; preds = %.lr.ph, %.thread.us.us
  %indvars.iv102 = phi i64 [ %indvars.iv.next103, %.thread.us.us ], [ 0, %.lr.ph ]
  %.03878.us.us = phi i32 [ %.13960.us.us, %.thread.us.us ], [ %14, %.lr.ph ]
  %46 = load ptr, ptr %44, align 8, !tbaa !52
  %47 = getelementptr inbounds nuw ptr, ptr %46, i64 %indvars.iv102
  %48 = load ptr, ptr %47, align 8, !tbaa !4
  %49 = call fastcc i32 @match_stream_specifier(ptr noundef %0, ptr noundef %48, ptr noundef %2, ptr noundef null, ptr noundef null, ptr noundef null)
  %50 = icmp slt i32 %49, 0
  br i1 %50, label %.thread68, label %51

51:                                               ; preds = %.lr.ph.split.us.split.us
  %.not55.us.us = icmp eq i32 %49, 0
  br i1 %.not55.us.us, label %.thread.us.us, label %52

52:                                               ; preds = %51
  %53 = add nsw i32 %.03878.us.us, -1
  %54 = icmp ne i32 %.03878.us.us, 0
  %55 = icmp ne ptr %1, %48
  %or.cond.not.us.us = or i1 %54, %55
  br i1 %or.cond.not.us.us, label %.thread.us.us, label %.thread65

.thread.us.us:                                    ; preds = %52, %51
  %.13960.us.us = phi i32 [ %53, %52 ], [ %.03878.us.us, %51 ]
  %indvars.iv.next103 = add nuw nsw i64 %indvars.iv102, 1
  %56 = icmp samesign ult i64 %indvars.iv.next103, %45
  %57 = icmp sgt i32 %.13960.us.us, -1
  %58 = select i1 %56, i1 %57, i1 false
  br i1 %58, label %.lr.ph.split.us.split.us, label %.thread65, !llvm.loop !123

.lr.ph.split.us.split:                            ; preds = %.lr.ph, %.thread.us
  %indvars.iv99 = phi i64 [ %indvars.iv.next100, %.thread.us ], [ 0, %.lr.ph ]
  %.03878.us = phi i32 [ %.13960.us, %.thread.us ], [ %14, %.lr.ph ]
  %59 = load ptr, ptr %43, align 8, !tbaa !100
  %60 = getelementptr inbounds nuw i32, ptr %59, i64 %indvars.iv99
  %61 = load i32, ptr %60, align 4, !tbaa !102
  %62 = load ptr, ptr %44, align 8, !tbaa !52
  %63 = zext i32 %61 to i64
  %64 = getelementptr inbounds nuw ptr, ptr %62, i64 %63
  %65 = load ptr, ptr %64, align 8, !tbaa !4
  %66 = call fastcc i32 @match_stream_specifier(ptr noundef %0, ptr noundef %65, ptr noundef %2, ptr noundef null, ptr noundef null, ptr noundef null)
  %67 = icmp slt i32 %66, 0
  br i1 %67, label %.thread68, label %68

68:                                               ; preds = %.lr.ph.split.us.split
  %.not55.us = icmp eq i32 %66, 0
  br i1 %.not55.us, label %.thread.us, label %69

69:                                               ; preds = %68
  %70 = add nsw i32 %.03878.us, -1
  %71 = icmp ne i32 %.03878.us, 0
  %72 = icmp ne ptr %1, %65
  %or.cond.not.us = or i1 %71, %72
  br i1 %or.cond.not.us, label %.thread.us, label %.thread65

.thread.us:                                       ; preds = %69, %68
  %.13960.us = phi i32 [ %70, %69 ], [ %.03878.us, %68 ]
  %indvars.iv.next100 = add nuw nsw i64 %indvars.iv99, 1
  %73 = icmp samesign ult i64 %indvars.iv.next100, %45
  %74 = icmp sgt i32 %.13960.us, -1
  %75 = select i1 %73, i1 %74, i1 false
  br i1 %75, label %.lr.ph.split.us.split, label %.thread65, !llvm.loop !123

.lr.ph.split:                                     ; preds = %.lr.ph.thread, %.thread
  %indvars.iv = phi i64 [ 0, %.lr.ph.thread ], [ %indvars.iv.next, %.thread ]
  %.03878 = phi i32 [ %14, %.lr.ph.thread ], [ %.13960, %.thread ]
  %76 = load ptr, ptr %39, align 8, !tbaa !124
  %77 = getelementptr inbounds nuw ptr, ptr %76, i64 %indvars.iv
  %78 = load ptr, ptr %77, align 8, !tbaa !4
  %79 = getelementptr inbounds nuw i8, ptr %78, i64 8
  %80 = load i32, ptr %79, align 8, !tbaa !122
  %81 = load ptr, ptr %40, align 8, !tbaa !52
  %82 = zext i32 %80 to i64
  %83 = getelementptr inbounds nuw ptr, ptr %81, i64 %82
  %84 = load ptr, ptr %83, align 8, !tbaa !4
  %85 = call fastcc i32 @match_stream_specifier(ptr noundef %0, ptr noundef %84, ptr noundef %2, ptr noundef null, ptr noundef null, ptr noundef null)
  %86 = icmp slt i32 %85, 0
  br i1 %86, label %.thread68, label %87

87:                                               ; preds = %.lr.ph.split
  %.not55 = icmp eq i32 %85, 0
  br i1 %.not55, label %.thread, label %88

88:                                               ; preds = %87
  %89 = add nsw i32 %.03878, -1
  %90 = icmp ne i32 %.03878, 0
  %91 = icmp ne ptr %1, %84
  %or.cond.not = or i1 %90, %91
  br i1 %or.cond.not, label %.thread, label %.thread65

.thread:                                          ; preds = %87, %88
  %.13960 = phi i32 [ %89, %88 ], [ %.03878, %87 ]
  %indvars.iv.next = add nuw nsw i64 %indvars.iv, 1
  %92 = icmp samesign ult i64 %indvars.iv.next, %41
  %93 = icmp sgt i32 %.13960, -1
  %94 = select i1 %92, i1 %93, i1 false
  br i1 %94, label %.lr.ph.split, label %.thread65, !llvm.loop !123

.thread68:                                        ; preds = %.lr.ph.split, %.lr.ph.split.us.split, %.lr.ph.split.us.split.us, %3
  %.032 = phi i32 [ %8, %3 ], [ %49, %.lr.ph.split.us.split.us ], [ %66, %.lr.ph.split.us.split ], [ %85, %.lr.ph.split ]
  %95 = icmp eq i32 %.032, -22
  br i1 %95, label %.thread71, label %.thread65

.thread71:                                        ; preds = %12, %.thread68
  call void (ptr, i32, ptr, ...) @av_log(ptr noundef %0, i32 noundef 16, ptr noundef nonnull @.str.12, ptr noundef %2) #13
  br label %.thread65

.thread65:                                        ; preds = %88, %.thread, %69, %.thread.us, %52, %.thread.us.us, %.thread105, %26, %.thread68, %.thread71, %10, %19
  %.0 = phi i32 [ %23, %19 ], [ %8, %10 ], [ -22, %.thread71 ], [ %.032, %.thread68 ], [ 0, %26 ], [ 0, %.thread105 ], [ 1, %52 ], [ 0, %.thread.us.us ], [ 1, %69 ], [ 0, %.thread.us ], [ 1, %88 ], [ 0, %.thread ]
  call void @llvm.lifetime.end.p0(i64 8, ptr nonnull %7) #13
  call void @llvm.lifetime.end.p0(i64 8, ptr nonnull %6) #13
  call void @llvm.lifetime.end.p0(i64 8, ptr nonnull %5) #13
  call void @llvm.lifetime.end.p0(i64 8, ptr nonnull %4) #13
  ret i32 %.0
}